target datalayout = "e-m:e-p270:32:32-p271:32:32-p272:64:64-i64:64-i128:128-f80:128-n8:16:32:64-S128"
target triple = "x86_64-pc-linux-gnu"

%class.QString = type { %struct.QArrayDataPointer }
%struct.QArrayDataPointer = type { ptr, ptr, i64 }
%class.BluetoothHciSummaryDialog = type { %class.WiresharkDialog.base, ptr, %struct._bluetooth_hci_summary_tapinfo_t, %class.QMenu, ptr, ptr, ptr, ptr, ptr, ptr, ptr, ptr, ptr, ptr, ptr, ptr, ptr, ptr }
%class.WiresharkDialog.base = type <{ %class.GeometryStateDialog, ptr, i8, [7 x i8], %class.QString, %class.QList, i32, i8 }>
%class.GeometryStateDialog = type { %class.QDialog, %class.QString, ptr }
%class.QDialog = type { %class.QWidget }
%class.QWidget = type { %class.QObject, %class.QPaintDevice.base, ptr }
%class.QObject = type { ptr, %class.QScopedPointer }
%class.QScopedPointer = type { ptr }
%class.QPaintDevice.base = type <{ ptr, i16 }>
%class.QList = type { %struct.QArrayDataPointer.0 }
%struct.QArrayDataPointer.0 = type { ptr, ptr, i64 }
%struct._bluetooth_hci_summary_tapinfo_t = type { ptr, ptr, ptr }
%class.QMenu = type { %class.QWidget }
%class.QEvent = type { ptr, i16, i8, i8, i8, i8, i16 }

; Function Attrs: inlinehint mustprogress nounwind null_pointer_is_valid sspstrong uwtable
define linkonce_odr noundef i32 @_ZNK6QEvent4typeEv(ptr noundef align 8 dereferenceable_or_null(16) %0) #3 comdat align 2 {
  %2 = alloca ptr, align 8
  store ptr %0, ptr %2, align 8
  %3 = load ptr, ptr %2, align 8
  %4 = getelementptr inbounds nuw %class.QEvent, ptr %3, i32 0, i32 1
  %5 = load i16, ptr %4, align 8
  %6 = zext i16 %5 to i32
  ret i32 %6
}

; Function Attrs: mustprogress null_pointer_is_valid sspstrong uwtable
define void @_ZN25BluetoothHciSummaryDialog11changeEventEP6QEvent(ptr noundef align 8 dereferenceable_or_null(328) %0, ptr noundef %1) unnamed_addr #0 align 2 {
  %3 = alloca ptr, align 8
  %4 = alloca ptr, align 8
  store ptr %0, ptr %3, align 8
  store ptr %1, ptr %4, align 8
  %5 = load ptr, ptr %3, align 8
  %6 = load ptr, ptr %4, align 8
  %7 = icmp ne ptr null, %6
  br i1 %7, label %8, label %16

8:                                                ; preds = %2
  %9 = load ptr, ptr %4, align 8
  %10 = call noundef i32 @_ZNK6QEvent4typeEv(ptr noundef align 8 dereferenceable_or_null(16) %9)
  switch i32 %10, label %14 [
    i32 89, label %11
  ]

11:                                               ; preds = %8
  %12 = getelementptr inbounds nuw %class.BluetoothHciSummaryDialog, ptr %5, i32 0, i32 1
  %13 = load ptr, ptr %12, align 8
  call void @_ZN28Ui_BluetoothHciSummaryDialog13retranslateUiEP7QDialog(ptr noundef align 8 dereferenceable_or_null(144) %13, ptr noundef %5)
  br label %15

14:                                               ; preds = %8
  br label %15

15:                                               ; preds = %14, %11
  br label %16

16:                                               ; preds = %15, %2
  %17 = load ptr, ptr %4, align 8
  call void @_ZN7QWidget11changeEventEP6QEvent(ptr noundef align 8 dereferenceable_or_null(40) %5, ptr noundef %17)
  ret void
}